target datalayout = "e-m:e-p270:32:32-p271:32:32-p272:64:64-i64:64-i128:128-f80:128-n8:16:32:64-S128"
target triple = "x86_64-pc-linux-gnu"

%struct.TransferCharacteristics = type { double, double, double, double }
%struct.ColorSpaceContext = type { ptr, %struct.ColorSpaceDSPContext, i32, i32, i32, i32, i32, i32, i32, i32, i32, i32, i32, i32, i32, i32, i32, i32, i32, i32, i32, i32, i32, i32, i32, [3 x ptr], i64, i32, [3 x [2 x ptr]], [3 x [2 x ptr]], ptr, ptr, i32, [4 x i8], [3 x [3 x [8 x i16]]], ptr, ptr, i32, ptr, ptr, ptr, ptr, i32, i32, [3 x [3 x [8 x i16]]], [3 x [3 x [8 x i16]]], [3 x [3 x [8 x i16]]], [2 x [8 x i16]], ptr, ptr, ptr, ptr, [3 x [3 x double]], [3 x [3 x double]], i32, i32, i32, i32, i32, [12 x i8] }
%struct.ColorSpaceDSPContext = type { [3 x [3 x ptr]], [3 x [3 x ptr]], [3 x [3 x ptr]], [3 x [3 x [3 x ptr]]], ptr }

; Function Attrs: alwaysinline nounwind willreturn memory(none) uwtable
define internal signext i16 @av_clip_int16_c(i32 noundef %0) #7 {
  %2 = alloca i16, align 2
  %3 = alloca i32, align 4
  store i32 %0, ptr %3, align 4, !tbaa !33
  %4 = load i32, ptr %3, align 4, !tbaa !33
  %5 = add i32 %4, 32768
  %6 = and i32 %5, -65536
  %7 = icmp ne i32 %6, 0
  br i1 %7, label %8, label %13

8:                                                ; preds = %1
  %9 = load i32, ptr %3, align 4, !tbaa !33
  %10 = ashr i32 %9, 31
  %11 = xor i32 %10, 32767
  %12 = trunc i32 %11 to i16
  store i16 %12, ptr %2, align 2
  br label %16

13:                                               ; preds = %1
  %14 = load i32, ptr %3, align 4, !tbaa !33
  %15 = trunc i32 %14 to i16
  store i16 %15, ptr %2, align 2
  br label %16

16:                                               ; preds = %13, %8
  %17 = load i16, ptr %2, align 2
  ret i16 %17
}

; Function Attrs: nounwind uwtable
define internal i32 @fill_gamma_table(ptr noundef %0) #1 {
  %2 = alloca i32, align 4
  %3 = alloca ptr, align 8
  %4 = alloca i32, align 4
  %5 = alloca double, align 8
  %6 = alloca double, align 8
  %7 = alloca double, align 8
  %8 = alloca double, align 8
  %9 = alloca double, align 8
  %10 = alloca double, align 8
  %11 = alloca double, align 8
  %12 = alloca double, align 8
  %13 = alloca double, align 8
  %14 = alloca double, align 8
  %15 = alloca double, align 8
  %16 = alloca i32, align 4
  %17 = alloca double, align 8
  %18 = alloca double, align 8
  %19 = alloca double, align 8
  store ptr %0, ptr %3, align 8, !tbaa !22
  call void @llvm.lifetime.start.p0(i64 4, ptr %4) #9
  call void @llvm.lifetime.start.p0(i64 8, ptr %5) #9
  %20 = load ptr, ptr %3, align 8, !tbaa !22
  %21 = getelementptr inbounds nuw %struct.ColorSpaceContext, ptr %20, i32 0, i32 35
  %22 = load ptr, ptr %21, align 16, !tbaa !97
  %23 = getelementptr inbounds nuw %struct.TransferCharacteristics, ptr %22, i32 0, i32 0
  %24 = load double, ptr %23, align 8, !tbaa !153
  store double %24, ptr %5, align 8, !tbaa !111
  call void @llvm.lifetime.start.p0(i64 8, ptr %6) #9
  %25 = load ptr, ptr %3, align 8, !tbaa !22
  %26 = getelementptr inbounds nuw %struct.ColorSpaceContext, ptr %25, i32 0, i32 35
  %27 = load ptr, ptr %26, align 16, !tbaa !97
  %28 = getelementptr inbounds nuw %struct.TransferCharacteristics, ptr %27, i32 0, i32 1
  %29 = load double, ptr %28, align 8, !tbaa !155
  store double %29, ptr %6, align 8, !tbaa !111
  call void @llvm.lifetime.start.p0(i64 8, ptr %7) #9
  %30 = load ptr, ptr %3, align 8, !tbaa !22
  %31 = getelementptr inbounds nuw %struct.ColorSpaceContext, ptr %30, i32 0, i32 35
  %32 = load ptr, ptr %31, align 16, !tbaa !97
  %33 = getelementptr inbounds nuw %struct.TransferCharacteristics, ptr %32, i32 0, i32 2
  %34 = load double, ptr %33, align 8, !tbaa !156
  store double %34, ptr %7, align 8, !tbaa !111
  call void @llvm.lifetime.start.p0(i64 8, ptr %8) #9
  %35 = load ptr, ptr %3, align 8, !tbaa !22
  %36 = getelementptr inbounds nuw %struct.ColorSpaceContext, ptr %35, i32 0, i32 35
  %37 = load ptr, ptr %36, align 16, !tbaa !97
  %38 = getelementptr inbounds nuw %struct.TransferCharacteristics, ptr %37, i32 0, i32 3
  %39 = load double, ptr %38, align 8, !tbaa !157
  store double %39, ptr %8, align 8, !tbaa !111
  call void @llvm.lifetime.start.p0(i64 8, ptr %9) #9
  %40 = load double, ptr %5, align 8, !tbaa !111
  %41 = fdiv nsz double 1.000000e+00, %40
  store double %41, ptr %9, align 8, !tbaa !111
  call void @llvm.lifetime.start.p0(i64 8, ptr %10) #9
  %42 = load double, ptr %7, align 8, !tbaa !111
  %43 = fdiv nsz double 1.000000e+00, %42
  store double %43, ptr %10, align 8, !tbaa !111
  call void @llvm.lifetime.start.p0(i64 8, ptr %11) #9
  %44 = load double, ptr %8, align 8, !tbaa !111
  %45 = fdiv nsz double 1.000000e+00, %44
  store double %45, ptr %11, align 8, !tbaa !111
  call void @llvm.lifetime.start.p0(i64 8, ptr %12) #9
  %46 = load ptr, ptr %3, align 8, !tbaa !22
  %47 = getelementptr inbounds nuw %struct.ColorSpaceContext, ptr %46, i32 0, i32 36
  %48 = load ptr, ptr %47, align 8, !tbaa !99
  %49 = getelementptr inbounds nuw %struct.TransferCharacteristics, ptr %48, i32 0, i32 0
  %50 = load double, ptr %49, align 8, !tbaa !153
  store double %50, ptr %12, align 8, !tbaa !111
  call void @llvm.lifetime.start.p0(i64 8, ptr %13) #9
  %51 = load ptr, ptr %3, align 8, !tbaa !22
  %52 = getelementptr inbounds nuw %struct.ColorSpaceContext, ptr %51, i32 0, i32 36
  %53 = load ptr, ptr %52, align 8, !tbaa !99
  %54 = getelementptr inbounds nuw %struct.TransferCharacteristics, ptr %53, i32 0, i32 1
  %55 = load double, ptr %54, align 8, !tbaa !155
  store double %55, ptr %13, align 8, !tbaa !111
  call void @llvm.lifetime.start.p0(i64 8, ptr %14) #9
  %56 = load ptr, ptr %3, align 8, !tbaa !22
  %57 = getelementptr inbounds nuw %struct.ColorSpaceContext, ptr %56, i32 0, i32 36
  %58 = load ptr, ptr %57, align 8, !tbaa !99
  %59 = getelementptr inbounds nuw %struct.TransferCharacteristics, ptr %58, i32 0, i32 2
  %60 = load double, ptr %59, align 8, !tbaa !156
  store double %60, ptr %14, align 8, !tbaa !111
  call void @llvm.lifetime.start.p0(i64 8, ptr %15) #9
  %61 = load ptr, ptr %3, align 8, !tbaa !22
  %62 = getelementptr inbounds nuw %struct.ColorSpaceContext, ptr %61, i32 0, i32 36
  %63 = load ptr, ptr %62, align 8, !tbaa !99
  %64 = getelementptr inbounds nuw %struct.TransferCharacteristics, ptr %63, i32 0, i32 3
  %65 = load double, ptr %64, align 8, !tbaa !157
  store double %65, ptr %15, align 8, !tbaa !111
  %66 = call noalias ptr @av_malloc(i64 noundef 131072)
  %67 = load ptr, ptr %3, align 8, !tbaa !22
  %68 = getelementptr inbounds nuw %struct.ColorSpaceContext, ptr %67, i32 0, i32 38
  store ptr %66, ptr %68, align 8, !tbaa !122
  %69 = load ptr, ptr %3, align 8, !tbaa !22
  %70 = getelementptr inbounds nuw %struct.ColorSpaceContext, ptr %69, i32 0, i32 38
  %71 = load ptr, ptr %70, align 8, !tbaa !122
  %72 = icmp ne ptr %71, null
  br i1 %72, label %74, label %73

73:                                               ; preds = %1
  store i32 -12, ptr %2, align 4
  store i32 1, ptr %16, align 4
  br label %185

74:                                               ; preds = %1
  %75 = load ptr, ptr %3, align 8, !tbaa !22
  %76 = getelementptr inbounds nuw %struct.ColorSpaceContext, ptr %75, i32 0, i32 38
  %77 = load ptr, ptr %76, align 8, !tbaa !122
  %78 = getelementptr inbounds i16, ptr %77, i64 32768
  %79 = load ptr, ptr %3, align 8, !tbaa !22
  %80 = getelementptr inbounds nuw %struct.ColorSpaceContext, ptr %79, i32 0, i32 39
  store ptr %78, ptr %80, align 16, !tbaa !150
  store i32 0, ptr %4, align 4, !tbaa !33
  br label %81

81:                                               ; preds = %181, %74
  %82 = load i32, ptr %4, align 4, !tbaa !33
  %83 = icmp slt i32 %82, 32768
  br i1 %83, label %84, label %184

84:                                               ; preds = %81
  call void @llvm.lifetime.start.p0(i64 8, ptr %17) #9
  %85 = load i32, ptr %4, align 4, !tbaa !33
  %86 = sitofp i32 %85 to double
  %87 = fsub nsz double %86, 2.048000e+03
  %88 = fdiv nsz double %87, 2.867200e+04
  store double %88, ptr %17, align 8, !tbaa !111
  call void @llvm.lifetime.start.p0(i64 8, ptr %18) #9
  call void @llvm.lifetime.start.p0(i64 8, ptr %19) #9
  %89 = load double, ptr %17, align 8, !tbaa !111
  %90 = load double, ptr %13, align 8, !tbaa !111
  %91 = fneg nsz double %90
  %92 = fcmp nsz ole double %89, %91
  br i1 %92, label %93, label %103

93:                                               ; preds = %84
  %94 = load double, ptr %12, align 8, !tbaa !111
  %95 = fneg nsz double %94
  %96 = load double, ptr %17, align 8, !tbaa !111
  %97 = fneg nsz double %96
  %98 = load double, ptr %14, align 8, !tbaa !111
  %99 = call nsz double @llvm.pow.f64(double %97, double %98)
  %100 = load double, ptr %12, align 8, !tbaa !111
  %101 = fsub nsz double %100, 1.000000e+00
  %102 = call nsz double @llvm.fmuladd.f64(double %95, double %99, double %101)
  store double %102, ptr %18, align 8, !tbaa !111
  br label %121

103:                                              ; preds = %84
  %104 = load double, ptr %17, align 8, !tbaa !111
  %105 = load double, ptr %13, align 8, !tbaa !111
  %106 = fcmp nsz olt double %104, %105
  br i1 %106, label %107, label %111

107:                                              ; preds = %103
  %108 = load double, ptr %15, align 8, !tbaa !111
  %109 = load double, ptr %17, align 8, !tbaa !111
  %110 = fmul nsz double %108, %109
  store double %110, ptr %18, align 8, !tbaa !111
  br label %120

111:                                              ; preds = %103
  %112 = load double, ptr %12, align 8, !tbaa !111
  %113 = load double, ptr %17, align 8, !tbaa !111
  %114 = load double, ptr %14, align 8, !tbaa !111
  %115 = call nsz double @llvm.pow.f64(double %113, double %114)
  %116 = load double, ptr %12, align 8, !tbaa !111
  %117 = fsub nsz double %116, 1.000000e+00
  %118 = fneg nsz double %117
  %119 = call nsz double @llvm.fmuladd.f64(double %112, double %115, double %118)
  store double %119, ptr %18, align 8, !tbaa !111
  br label %120

120:                                              ; preds = %111, %107
  br label %121

121:                                              ; preds = %120, %93
  %122 = load double, ptr %18, align 8, !tbaa !111
  %123 = fmul nsz double %122, 2.867200e+04
  %124 = call i64 @llvm.lrint.i64.f64(double %123)
  %125 = trunc i64 %124 to i32
  %126 = call signext i16 @av_clip_int16_c(i32 noundef %125) #11
  %127 = load ptr, ptr %3, align 8, !tbaa !22
  %128 = getelementptr inbounds nuw %struct.ColorSpaceContext, ptr %127, i32 0, i32 39
  %129 = load ptr, ptr %128, align 16, !tbaa !150
  %130 = load i32, ptr %4, align 4, !tbaa !33
  %131 = sext i32 %130 to i64
  %132 = getelementptr inbounds i16, ptr %129, i64 %131
  store i16 %126, ptr %132, align 2, !tbaa !113
  %133 = load double, ptr %17, align 8, !tbaa !111
  %134 = load double, ptr %6, align 8, !tbaa !111
  %135 = fneg nsz double %134
  %136 = load double, ptr %8, align 8, !tbaa !111
  %137 = fmul nsz double %135, %136
  %138 = fcmp nsz ole double %133, %137
  br i1 %138, label %139, label %149

139:                                              ; preds = %121
  %140 = load double, ptr %5, align 8, !tbaa !111
  %141 = fsub nsz double 1.000000e+00, %140
  %142 = load double, ptr %17, align 8, !tbaa !111
  %143 = fsub nsz double %141, %142
  %144 = load double, ptr %9, align 8, !tbaa !111
  %145 = fmul nsz double %143, %144
  %146 = load double, ptr %10, align 8, !tbaa !111
  %147 = call nsz double @llvm.pow.f64(double %145, double %146)
  %148 = fneg nsz double %147
  store double %148, ptr %19, align 8, !tbaa !111
  br label %169

149:                                              ; preds = %121
  %150 = load double, ptr %17, align 8, !tbaa !111
  %151 = load double, ptr %6, align 8, !tbaa !111
  %152 = load double, ptr %8, align 8, !tbaa !111
  %153 = fmul nsz double %151, %152
  %154 = fcmp nsz olt double %150, %153
  br i1 %154, label %155, label %159

155:                                              ; preds = %149
  %156 = load double, ptr %17, align 8, !tbaa !111
  %157 = load double, ptr %11, align 8, !tbaa !111
  %158 = fmul nsz double %156, %157
  store double %158, ptr %19, align 8, !tbaa !111
  br label %168

159:                                              ; preds = %149
  %160 = load double, ptr %17, align 8, !tbaa !111
  %161 = load double, ptr %5, align 8, !tbaa !111
  %162 = fadd nsz double %160, %161
  %163 = fsub nsz double %162, 1.000000e+00
  %164 = load double, ptr %9, align 8, !tbaa !111
  %165 = fmul nsz double %163, %164
  %166 = load double, ptr %10, align 8, !tbaa !111
  %167 = call nsz double @llvm.pow.f64(double %165, double %166)
  store double %167, ptr %19, align 8, !tbaa !111
  br label %168

168:                                              ; preds = %159, %155
  br label %169

169:                                              ; preds = %168, %139
  %170 = load double, ptr %19, align 8, !tbaa !111
  %171 = fmul nsz double %170, 2.867200e+04
  %172 = call i64 @llvm.lrint.i64.f64(double %171)
  %173 = trunc i64 %172 to i32
  %174 = call signext i16 @av_clip_int16_c(i32 noundef %173) #11
  %175 = load ptr, ptr %3, align 8, !tbaa !22
  %176 = getelementptr inbounds nuw %struct.ColorSpaceContext, ptr %175, i32 0, i32 38
  %177 = load ptr, ptr %176, align 8, !tbaa !122
  %178 = load i32, ptr %4, align 4, !tbaa !33
  %179 = sext i32 %178 to i64
  %180 = getelementptr inbounds i16, ptr %177, i64 %179
  store i16 %174, ptr %180, align 2, !tbaa !113
  call void @llvm.lifetime.end.p0(i64 8, ptr %19) #9
  call void @llvm.lifetime.end.p0(i64 8, ptr %18) #9
  call void @llvm.lifetime.end.p0(i64 8, ptr %17) #9
  br label %181

181:                                              ; preds = %169
  %182 = load i32, ptr %4, align 4, !tbaa !33
  %183 = add nsw i32 %182, 1
  store i32 %183, ptr %4, align 4, !tbaa !33
  br label %81, !llvm.loop !158

184:                                              ; preds = %81
  store i32 0, ptr %2, align 4
  store i32 1, ptr %16, align 4
  br label %185

185:                                              ; preds = %184, %73
  call void @llvm.lifetime.end.p0(i64 8, ptr %15) #9
  call void @llvm.lifetime.end.p0(i64 8, ptr %14) #9
  call void @llvm.lifetime.end.p0(i64 8, ptr %13) #9
  call void @llvm.lifetime.end.p0(i64 8, ptr %12) #9
  call void @llvm.lifetime.end.p0(i64 8, ptr %11) #9
  call void @llvm.lifetime.end.p0(i64 8, ptr %10) #9
  call void @llvm.lifetime.end.p0(i64 8, ptr %9) #9
  call void @llvm.lifetime.end.p0(i64 8, ptr %8) #9
  call void @llvm.lifetime.end.p0(i64 8, ptr %7) #9
  call void @llvm.lifetime.end.p0(i64 8, ptr %6) #9
  call void @llvm.lifetime.end.p0(i64 8, ptr %5) #9
  call void @llvm.lifetime.end.p0(i64 4, ptr %4) #9
  %186 = load i32, ptr %2, align 4
  ret i32 %186
}