; Function Attrs: nounwind uwtable
define internal fastcc range(i32 -12, 1) i32 @fill_gamma_table(ptr noundef captures(none) initializes((872, 880)) %0) unnamed_addr #1 {
  %2 = getelementptr inbounds nuw i8, ptr %0, i64 848
  %3 = load ptr, ptr %2, align 16, !tbaa !82
  %4 = load double, ptr %3, align 8, !tbaa !103
  %5 = getelementptr inbounds nuw i8, ptr %3, i64 8
  %6 = load double, ptr %5, align 8, !tbaa !141
  %7 = getelementptr inbounds nuw i8, ptr %3, i64 16
  %8 = load double, ptr %7, align 8, !tbaa !142
  %9 = getelementptr inbounds nuw i8, ptr %3, i64 24
  %10 = load double, ptr %9, align 8, !tbaa !143
  %11 = fdiv nsz double 1.000000e+00, %4
  %12 = fdiv nsz double 1.000000e+00, %8
  %13 = fdiv nsz double 1.000000e+00, %10
  %14 = getelementptr inbounds nuw i8, ptr %0, i64 856
  %15 = load ptr, ptr %14, align 8, !tbaa !84
  %16 = load double, ptr %15, align 8, !tbaa !103
  %17 = getelementptr inbounds nuw i8, ptr %15, i64 8
  %18 = load double, ptr %17, align 8, !tbaa !141
  %19 = getelementptr inbounds nuw i8, ptr %15, i64 16
  %20 = load double, ptr %19, align 8, !tbaa !142
  %21 = getelementptr inbounds nuw i8, ptr %15, i64 24
  %22 = load double, ptr %21, align 8, !tbaa !143
  %23 = tail call noalias ptr @av_malloc(i64 noundef 131072) #9
  %24 = getelementptr inbounds nuw i8, ptr %0, i64 872
  store ptr %23, ptr %24, align 8, !tbaa !107
  %.not = icmp eq ptr %23, null
  br i1 %.not, label %.loopexit, label %25

25:                                               ; preds = %1
  %26 = getelementptr inbounds nuw i8, ptr %23, i64 65536
  %27 = getelementptr inbounds nuw i8, ptr %0, i64 880
  store ptr %26, ptr %27, align 16, !tbaa !139
  %28 = fneg nsz double %18
  %29 = fneg nsz double %6
  %30 = fmul nsz double %10, %29
  %31 = fneg nsz double %16
  %32 = fadd nsz double %16, -1.000000e+00
  %33 = fsub nsz double 1.000000e+00, %16
  %34 = fsub nsz double 1.000000e+00, %4
  %35 = fmul nsz double %6, %10
  br label %36

36:                                               ; preds = %25, %77
  %indvars.iv = phi i64 [ 0, %25 ], [ %indvars.iv.next, %77 ]
  %37 = trunc i64 %indvars.iv to i32
  %38 = add i32 %37, -2048
  %39 = sitofp i32 %38 to double
  %40 = fdiv nsz double %39, 2.867200e+04
  %41 = fcmp nsz ugt double %40, %28
  br i1 %41, label %46, label %42

42:                                               ; preds = %36
  %43 = fneg nsz double %40
  %44 = tail call nsz double @llvm.pow.f64(double %43, double %20)
  %45 = tail call nsz double @llvm.fmuladd.f64(double %31, double %44, double %32)
  br label %53

46:                                               ; preds = %36
  %47 = fcmp nsz olt double %40, %18
  br i1 %47, label %48, label %50

48:                                               ; preds = %46
  %49 = fmul nsz double %22, %40
  br label %53

50:                                               ; preds = %46
  %51 = tail call nsz double @llvm.pow.f64(double %40, double %20)
  %52 = tail call nsz double @llvm.fmuladd.f64(double %16, double %51, double %33)
  br label %53

53:                                               ; preds = %48, %50, %42
  %.054 = phi nsz double [ %45, %42 ], [ %49, %48 ], [ %52, %50 ]
  %54 = fmul nsz double %.054, 2.867200e+04
  %55 = tail call i64 @llvm.lrint.i64.f64(double %54)
  %56 = trunc i64 %55 to i32
  %57 = add i32 %56, 32768
  %.not.i = icmp ult i32 %57, 65536
  %58 = icmp sgt i32 %56, -1
  %59 = select i1 %58, i16 32767, i16 -32768
  %60 = trunc i64 %55 to i16
  %.0.i = select i1 %.not.i, i16 %60, i16 %59
  %61 = getelementptr inbounds nuw i16, ptr %26, i64 %indvars.iv
  store i16 %.0.i, ptr %61, align 2, !tbaa !96
  %62 = fcmp nsz ugt double %40, %30
  br i1 %62, label %68, label %63

63:                                               ; preds = %53
  %64 = fsub nsz double %34, %40
  %65 = fmul nsz double %11, %64
  %66 = tail call nsz double @llvm.pow.f64(double %65, double %12)
  %67 = fneg nsz double %66
  br label %77

68:                                               ; preds = %53
  %69 = fcmp nsz olt double %40, %35
  br i1 %69, label %70, label %72

70:                                               ; preds = %68
  %71 = fmul nsz double %13, %40
  br label %77

72:                                               ; preds = %68
  %73 = fadd nsz double %4, %40
  %74 = fadd nsz double %73, -1.000000e+00
  %75 = fmul nsz double %11, %74
  %76 = tail call nsz double @llvm.pow.f64(double %75, double %12)
  br label %77

77:                                               ; preds = %70, %72, %63
  %.0 = phi nsz double [ %67, %63 ], [ %71, %70 ], [ %76, %72 ]
  %78 = fmul nsz double %.0, 2.867200e+04
  %79 = tail call i64 @llvm.lrint.i64.f64(double %78)
  %80 = trunc i64 %79 to i32
  %81 = add i32 %80, 32768
  %.not.i59 = icmp ult i32 %81, 65536
  %82 = icmp sgt i32 %80, -1
  %83 = select i1 %82, i16 32767, i16 -32768
  %84 = trunc i64 %79 to i16
  %.0.i60 = select i1 %.not.i59, i16 %84, i16 %83
  %85 = getelementptr inbounds nuw i16, ptr %23, i64 %indvars.iv
  store i16 %.0.i60, ptr %85, align 2, !tbaa !96
  %indvars.iv.next = add nuw nsw i64 %indvars.iv, 1
  %exitcond.not = icmp eq i64 %indvars.iv.next, 32768
  br i1 %exitcond.not, label %.loopexit, label %36, !llvm.loop !144

.loopexit:                                        ; preds = %77, %1
  %.055 = phi i32 [ -12, %1 ], [ 0, %77 ]
  ret i32 %.055
}